(dp0
S'highlightEdges'
p1
NsS'datasetLoaded'
p2
(S'/Users/sugeerthmurugesan/LBLProjects/BrainModulyzer/brain-vis-git/src/SampleData/Dataset1/27NodeMatrix.csv'
p3
S'/Users/sugeerthmurugesan/LBLProjects/BrainModulyzer/brain-vis-git/src/SampleData/Dataset1/ch2better.nii.gz'
p4
S'/Users/sugeerthmurugesan/LBLProjects/BrainModulyzer/brain-vis-git/src/SampleData/Dataset1/allROIs.nii.gz'
p5
tp6
sS'correlationMode'
p7
I01
sS'nodeMapping'
p8
S'Centrality'
p9
sS'onlyEdges:'
p10
I00
sS'edgeThickness'
p11
g9
sS'transparentNodes'
p12
I01
sS'communityGraphLevel'
p13
I-1
s.